
_InitUART:

;usar_hello_world.c,3 :: 		void InitUART(void)
;usar_hello_world.c,4 :: 		{   ANSEL=0;
	CLRF       ANSEL+0
;usar_hello_world.c,5 :: 		ANSELH=0;
	CLRF       ANSELH+0
;usar_hello_world.c,6 :: 		ANS11_bit =0;
	BCF        ANS11_bit+0, 3
;usar_hello_world.c,8 :: 		SPBRG = 25  ;
	MOVLW      25
	MOVWF      SPBRG+0
;usar_hello_world.c,9 :: 		BRGH_bit   = 1;
	BSF        BRGH_bit+0, 2
;usar_hello_world.c,11 :: 		SYNC_bit =0;			//Asynchronous Operation
	BCF        SYNC_bit+0, 4
;usar_hello_world.c,13 :: 		SPEN_bit   = 1;						// Enable serial port pins
	BSF        SPEN_bit+0, 7
;usar_hello_world.c,14 :: 		CREN_bit   = 1;						// Enable reception
	BSF        CREN_bit+0, 4
;usar_hello_world.c,15 :: 		SREN_bit   = 0;						// No effect
	BCF        SREN_bit+0, 5
;usar_hello_world.c,16 :: 		TXIE_bit   = 0;						// Disable tx interrupts
	BCF        TXIE_bit+0, 4
;usar_hello_world.c,17 :: 		RCIE_bit   = 1;						// Enable rx interrupts
	BSF        RCIE_bit+0, 5
;usar_hello_world.c,18 :: 		TX9_bit    = 0;						// 8-bit transmission
	BCF        TX9_bit+0, 6
;usar_hello_world.c,19 :: 		RX9_bit    = 0;						// 8-bit reception
	BCF        RX9_bit+0, 6
;usar_hello_world.c,20 :: 		TXEN_bit   = 0;						// Reset transmitter
	BCF        TXEN_bit+0, 5
;usar_hello_world.c,21 :: 		TXEN_bit   = 1;						// Enable the transmitter
	BSF        TXEN_bit+0, 5
;usar_hello_world.c,22 :: 		}
	RETURN
; end of _InitUART

_SendByteSerially:

;usar_hello_world.c,24 :: 		void SendByteSerially(unsigned char Byte)  // Writes a character to the serial port
;usar_hello_world.c,26 :: 		while(!TXIF_bit );  // wait for previous transmission to finish
L_SendByteSerially0:
	BTFSC      TXIF_bit+0, 4
	GOTO       L_SendByteSerially1
	GOTO       L_SendByteSerially0
L_SendByteSerially1:
;usar_hello_world.c,27 :: 		TXREG = Byte;
	MOVF       FARG_SendByteSerially_Byte+0, 0
	MOVWF      TXREG+0
;usar_hello_world.c,28 :: 		}
	RETURN
; end of _SendByteSerially

_ReceiveByteSerially:

;usar_hello_world.c,29 :: 		unsigned char ReceiveByteSerially(void)   // Reads a character from the serial port
;usar_hello_world.c,31 :: 		if(OERR_bit ) // If over run error, then reset the receiver
	BTFSS      OERR_bit+0, 1
	GOTO       L_ReceiveByteSerially2
;usar_hello_world.c,33 :: 		CREN_bit  = 0;
	BCF        CREN_bit+0, 4
;usar_hello_world.c,34 :: 		CREN_bit  = 1;
	BSF        CREN_bit+0, 4
;usar_hello_world.c,35 :: 		}
L_ReceiveByteSerially2:
;usar_hello_world.c,37 :: 		while(!RCIF_bit );  // Wait for transmission to receive
L_ReceiveByteSerially3:
	BTFSC      RCIF_bit+0, 5
	GOTO       L_ReceiveByteSerially4
	GOTO       L_ReceiveByteSerially3
L_ReceiveByteSerially4:
;usar_hello_world.c,39 :: 		return RCREG;
	MOVF       RCREG+0, 0
	MOVWF      R0+0
;usar_hello_world.c,40 :: 		}
	RETURN
; end of _ReceiveByteSerially

_SendStringSerially:

;usar_hello_world.c,41 :: 		void SendStringSerially(const unsigned char* st)
;usar_hello_world.c,43 :: 		while(*st)
L_SendStringSerially5:
	MOVF       FARG_SendStringSerially_st+0, 0
	MOVWF      ___DoICPAddr+0
	MOVF       FARG_SendStringSerially_st+1, 0
	MOVWF      ___DoICPAddr+1
	CALL       _____DoICP+0
	MOVWF      R0+0
	MOVF       R0+0, 0
	BTFSC      STATUS+0, 2
	GOTO       L_SendStringSerially6
;usar_hello_world.c,44 :: 		SendByteSerially(*st++);
	MOVF       FARG_SendStringSerially_st+0, 0
	MOVWF      ___DoICPAddr+0
	MOVF       FARG_SendStringSerially_st+1, 0
	MOVWF      ___DoICPAddr+1
	CALL       _____DoICP+0
	MOVWF      FARG_SendByteSerially_Byte+0
	CALL       _SendByteSerially+0
	INCF       FARG_SendStringSerially_st+0, 1
	BTFSC      STATUS+0, 2
	INCF       FARG_SendStringSerially_st+1, 1
	GOTO       L_SendStringSerially5
L_SendStringSerially6:
;usar_hello_world.c,45 :: 		}
	RETURN
; end of _SendStringSerially

_interrupt:
	MOVWF      R15+0
	SWAPF      STATUS+0, 0
	CLRF       STATUS+0
	MOVWF      ___saveSTATUS+0
	MOVF       PCLATH+0, 0
	MOVWF      ___savePCLATH+0
	CLRF       PCLATH+0

;usar_hello_world.c,47 :: 		void interrupt(void)
;usar_hello_world.c,49 :: 		if(RCIF_bit )  // If UART Rx Interrupt
	BTFSS      RCIF_bit+0, 5
	GOTO       L_interrupt7
;usar_hello_world.c,51 :: 		if(OERR_bit ) // If over run error, then reset the receiver
	BTFSS      OERR_bit+0, 1
	GOTO       L_interrupt8
;usar_hello_world.c,53 :: 		CREN_bit  = 0;
	BCF        CREN_bit+0, 4
;usar_hello_world.c,54 :: 		CREN_bit  = 1;
	BSF        CREN_bit+0, 4
;usar_hello_world.c,55 :: 		}
L_interrupt8:
;usar_hello_world.c,56 :: 		rcv=RCREG;
	MOVF       RCREG+0, 0
	MOVWF      _rcv+0
;usar_hello_world.c,58 :: 		}
L_interrupt7:
;usar_hello_world.c,59 :: 		}
L__interrupt20:
	MOVF       ___savePCLATH+0, 0
	MOVWF      PCLATH+0
	SWAPF      ___saveSTATUS+0, 0
	MOVWF      STATUS+0
	SWAPF      R15+0, 1
	SWAPF      R15+0, 0
	RETFIE
; end of _interrupt

_main:

;usar_hello_world.c,61 :: 		void main(void)
;usar_hello_world.c,62 :: 		{TRISB=0B00100000;
	MOVLW      32
	MOVWF      TRISB+0
;usar_hello_world.c,63 :: 		TRISA=0X00;
	CLRF       TRISA+0
;usar_hello_world.c,64 :: 		TRISC=0X00;
	CLRF       TRISC+0
;usar_hello_world.c,65 :: 		PORTC=0X00;
	CLRF       PORTC+0
;usar_hello_world.c,66 :: 		PORTB=0X00;
	CLRF       PORTB+0
;usar_hello_world.c,68 :: 		InitUART();							// Intialize UART
	CALL       _InitUART+0
;usar_hello_world.c,70 :: 		SendStringSerially("Hello World!");	// Send string on UART
	MOVLW      ?lstr_1_usar_hello_world+0
	MOVWF      FARG_SendStringSerially_st+0
	MOVLW      hi_addr(?lstr_1_usar_hello_world+0)
	MOVWF      FARG_SendStringSerially_st+1
	CALL       _SendStringSerially+0
;usar_hello_world.c,72 :: 		GIE_bit  = 1;  							// Enable global interrupts
	BSF        GIE_bit+0, 7
;usar_hello_world.c,73 :: 		PEIE_bit  = 1;  							// Enable Peripheral Interrupts
	BSF        PEIE_bit+0, 6
;usar_hello_world.c,74 :: 		rcv=0x00;
	CLRF       _rcv+0
;usar_hello_world.c,75 :: 		while(1)
L_main9:
;usar_hello_world.c,78 :: 		if(rcv!=0x00 && rcv!=0x41)
	MOVF       _rcv+0, 0
	XORLW      0
	BTFSC      STATUS+0, 2
	GOTO       L_main13
	MOVF       _rcv+0, 0
	XORLW      65
	BTFSC      STATUS+0, 2
	GOTO       L_main13
L__main19:
;usar_hello_world.c,79 :: 		{  SendByteSerially('\n');
	MOVLW      10
	MOVWF      FARG_SendByteSerially_Byte+0
	CALL       _SendByteSerially+0
;usar_hello_world.c,80 :: 		SendByteSerially('\r');
	MOVLW      13
	MOVWF      FARG_SendByteSerially_Byte+0
	CALL       _SendByteSerially+0
;usar_hello_world.c,81 :: 		SendByteSerially(rcv); // Echo back received char
	MOVF       _rcv+0, 0
	MOVWF      FARG_SendByteSerially_Byte+0
	CALL       _SendByteSerially+0
;usar_hello_world.c,82 :: 		rcv=0x00;
	CLRF       _rcv+0
;usar_hello_world.c,83 :: 		}
	GOTO       L_main14
L_main13:
;usar_hello_world.c,85 :: 		else if(rcv!=0x00 && rcv==0x41)
	MOVF       _rcv+0, 0
	XORLW      0
	BTFSC      STATUS+0, 2
	GOTO       L_main17
	MOVF       _rcv+0, 0
	XORLW      65
	BTFSS      STATUS+0, 2
	GOTO       L_main17
L__main18:
;usar_hello_world.c,86 :: 		{  PORTC=0X41;
	MOVLW      65
	MOVWF      PORTC+0
;usar_hello_world.c,87 :: 		rcv=0x00;}
	CLRF       _rcv+0
L_main17:
L_main14:
;usar_hello_world.c,89 :: 		}
	GOTO       L_main9
;usar_hello_world.c,90 :: 		}
	GOTO       $+0
; end of _main
